target datalayout = "e-m:e-p270:32:32-p271:32:32-p272:64:64-i64:64-f80:128-n8:16:32:64-S128"
target triple = "x86_64-pc-linux-gnu"

@.str = private unnamed_addr constant [7 x i8] c"%s\0A%s\0A\00", align 1

; Function Attrs: noinline nounwind uwtable
define dso_local void @deal(i8* %0) #0 {
  %2 = alloca i8*, align 8
  %3 = alloca i32, align 4
  %4 = alloca i32, align 4
  %5 = alloca i32, align 4
  store i8* %0, i8** %2, align 8
  store i32 0, i32* %5, align 4
  store i32 0, i32* %3, align 4
  br label %6

6:                                                ; preds = %71, %1
  %7 = load i32, i32* %3, align 4
  %8 = sext i32 %7 to i64
  %9 = load i8*, i8** %2, align 8
  %10 = call i64 @strlen(i8* %9) #4
  %11 = icmp ult i64 %8, %10
  br i1 %11, label %12, label %74

12:                                               ; preds = %6
  %13 = load i8*, i8** %2, align 8
  %14 = load i32, i32* %3, align 4
  %15 = sext i32 %14 to i64
  %16 = getelementptr inbounds i8, i8* %13, i64 %15
  %17 = load i8, i8* %16, align 1
  %18 = sext i8 %17 to i32
  %19 = icmp eq i32 %18, 40
  br i1 %19, label %20, label %70

20:                                               ; preds = %12
  %21 = load i32, i32* %3, align 4
  %22 = add nsw i32 %21, 1
  store i32 %22, i32* %4, align 4
  br label %23

23:                                               ; preds = %47, %20
  %24 = load i32, i32* %4, align 4
  %25 = sext i32 %24 to i64
  %26 = load i8*, i8** %2, align 8
  %27 = call i64 @strlen(i8* %26) #4
  %28 = icmp ult i64 %25, %27
  br i1 %28, label %29, label %50

29:                                               ; preds = %23
  %30 = load i8*, i8** %2, align 8
  %31 = load i32, i32* %4, align 4
  %32 = sext i32 %31 to i64
  %33 = getelementptr inbounds i8, i8* %30, i64 %32
  %34 = load i8, i8* %33, align 1
  %35 = sext i8 %34 to i32
  %36 = icmp eq i32 %35, 40
  br i1 %36, label %45, label %37

37:                                               ; preds = %29
  %38 = load i8*, i8** %2, align 8
  %39 = load i32, i32* %4, align 4
  %40 = sext i32 %39 to i64
  %41 = getelementptr inbounds i8, i8* %38, i64 %40
  %42 = load i8, i8* %41, align 1
  %43 = sext i8 %42 to i32
  %44 = icmp eq i32 %43, 41
  br i1 %44, label %45, label %46

45:                                               ; preds = %37, %29
  br label %50

46:                                               ; preds = %37
  br label %47

47:                                               ; preds = %46
  %48 = load i32, i32* %4, align 4
  %49 = add nsw i32 %48, 1
  store i32 %49, i32* %4, align 4
  br label %23

50:                                               ; preds = %45, %23
  %51 = load i8*, i8** %2, align 8
  %52 = load i32, i32* %4, align 4
  %53 = sext i32 %52 to i64
  %54 = getelementptr inbounds i8, i8* %51, i64 %53
  %55 = load i8, i8* %54, align 1
  %56 = sext i8 %55 to i32
  %57 = icmp eq i32 %56, 41
  br i1 %57, label %58, label %69

58:                                               ; preds = %50
  %59 = load i8*, i8** %2, align 8
  %60 = load i32, i32* %4, align 4
  %61 = sext i32 %60 to i64
  %62 = getelementptr inbounds i8, i8* %59, i64 %61
  store i8 97, i8* %62, align 1
  %63 = load i8*, i8** %2, align 8
  %64 = load i32, i32* %3, align 4
  %65 = sext i32 %64 to i64
  %66 = getelementptr inbounds i8, i8* %63, i64 %65
  store i8 97, i8* %66, align 1
  %67 = load i32, i32* %5, align 4
  %68 = add nsw i32 %67, 1
  store i32 %68, i32* %5, align 4
  br label %69

69:                                               ; preds = %58, %50
  br label %70

70:                                               ; preds = %69, %12
  br label %71

71:                                               ; preds = %70
  %72 = load i32, i32* %3, align 4
  %73 = add nsw i32 %72, 1
  store i32 %73, i32* %3, align 4
  br label %6

74:                                               ; preds = %6
  %75 = load i32, i32* %5, align 4
  %76 = icmp ne i32 %75, 0
  br i1 %76, label %77, label %79

77:                                               ; preds = %74
  %78 = load i8*, i8** %2, align 8
  call void @deal(i8* %78)
  br label %79

79:                                               ; preds = %77, %74
  ret void
}

; Function Attrs: noinline nounwind uwtable
define dso_local i32 @main() #0 {
  %1 = alloca i32, align 4
  %2 = alloca i32, align 4
  %3 = alloca i32, align 4
  %4 = alloca [1000 x i8], align 16
  %5 = alloca [1000 x i8], align 16
  %6 = alloca [1000 x i8], align 16
  store i32 0, i32* %1, align 4
  br label %7

7:                                                ; preds = %0, %68
  store i32 0, i32* %2, align 4
  br label %8

8:                                                ; preds = %15, %7
  %9 = load i32, i32* %2, align 4
  %10 = icmp slt i32 %9, 1000
  br i1 %10, label %11, label %18

11:                                               ; preds = %8
  %12 = load i32, i32* %2, align 4
  %13 = sext i32 %12 to i64
  %14 = getelementptr inbounds [1000 x i8], [1000 x i8]* %4, i64 0, i64 %13
  store i8 0, i8* %14, align 1
  br label %15

15:                                               ; preds = %11
  %16 = load i32, i32* %2, align 4
  %17 = add nsw i32 %16, 1
  store i32 %17, i32* %2, align 4
  br label %8

18:                                               ; preds = %8
  %19 = getelementptr inbounds [1000 x i8], [1000 x i8]* %4, i64 0, i64 0
  %20 = call i32 (i8*, ...) bitcast (i32 (...)* @gets to i32 (i8*, ...)*)(i8* %19)
  %21 = getelementptr inbounds [1000 x i8], [1000 x i8]* %4, i64 0, i64 0
  %22 = load i8, i8* %21, align 16
  %23 = sext i8 %22 to i32
  %24 = icmp eq i32 %23, 0
  br i1 %24, label %25, label %26

25:                                               ; preds = %18
  br label %75

26:                                               ; preds = %18
  %27 = getelementptr inbounds [1000 x i8], [1000 x i8]* %5, i64 0, i64 0
  %28 = getelementptr inbounds [1000 x i8], [1000 x i8]* %4, i64 0, i64 0
  %29 = call i8* @strcpy(i8* %27, i8* %28) #5
  %30 = getelementptr inbounds [1000 x i8], [1000 x i8]* %5, i64 0, i64 0
  call void @deal(i8* %30)
  store i32 0, i32* %2, align 4
  br label %31

31:                                               ; preds = %65, %26
  %32 = load i32, i32* %2, align 4
  %33 = sext i32 %32 to i64
  %34 = getelementptr inbounds [1000 x i8], [1000 x i8]* %4, i64 0, i64 0
  %35 = call i64 @strlen(i8* %34) #4
  %36 = icmp ult i64 %33, %35
  br i1 %36, label %37, label %68

37:                                               ; preds = %31
  %38 = load i32, i32* %2, align 4
  %39 = sext i32 %38 to i64
  %40 = getelementptr inbounds [1000 x i8], [1000 x i8]* %5, i64 0, i64 %39
  %41 = load i8, i8* %40, align 1
  %42 = sext i8 %41 to i32
  %43 = icmp eq i32 %42, 40
  br i1 %43, label %44, label %48

44:                                               ; preds = %37
  %45 = load i32, i32* %2, align 4
  %46 = sext i32 %45 to i64
  %47 = getelementptr inbounds [1000 x i8], [1000 x i8]* %6, i64 0, i64 %46
  store i8 36, i8* %47, align 1
  br label %64

48:                                               ; preds = %37
  %49 = load i32, i32* %2, align 4
  %50 = sext i32 %49 to i64
  %51 = getelementptr inbounds [1000 x i8], [1000 x i8]* %5, i64 0, i64 %50
  %52 = load i8, i8* %51, align 1
  %53 = sext i8 %52 to i32
  %54 = icmp eq i32 %53, 41
  br i1 %54, label %55, label %59

55:                                               ; preds = %48
  %56 = load i32, i32* %2, align 4
  %57 = sext i32 %56 to i64
  %58 = getelementptr inbounds [1000 x i8], [1000 x i8]* %6, i64 0, i64 %57
  store i8 63, i8* %58, align 1
  br label %63

59:                                               ; preds = %48
  %60 = load i32, i32* %2, align 4
  %61 = sext i32 %60 to i64
  %62 = getelementptr inbounds [1000 x i8], [1000 x i8]* %6, i64 0, i64 %61
  store i8 32, i8* %62, align 1
  br label %63

63:                                               ; preds = %59, %55
  br label %64

64:                                               ; preds = %63, %44
  br label %65

65:                                               ; preds = %64
  %66 = load i32, i32* %2, align 4
  %67 = add nsw i32 %66, 1
  store i32 %67, i32* %2, align 4
  br label %31

68:                                               ; preds = %31
  %69 = getelementptr inbounds [1000 x i8], [1000 x i8]* %4, i64 0, i64 0
  %70 = call i64 @strlen(i8* %69) #4
  %71 = getelementptr inbounds [1000 x i8], [1000 x i8]* %6, i64 0, i64 %70
  store i8 0, i8* %71, align 1
  %72 = getelementptr inbounds [1000 x i8], [1000 x i8]* %4, i64 0, i64 0
  %73 = getelementptr inbounds [1000 x i8], [1000 x i8]* %6, i64 0, i64 0
  %74 = call i32 (i8*, ...) @printf(i8* getelementptr inbounds ([7 x i8], [7 x i8]* @.str, i64 0, i64 0), i8* %72, i8* %73)
  br label %7

75:                                               ; preds = %25
  ret i32 0
}